target datalayout = "e-m:e-p270:32:32-p271:32:32-p272:64:64-i64:64-i128:128-f80:128-n8:16:32:64-S128"
target triple = "x86_64-pc-linux-gnu"

; Function Attrs: nounwind uwtable
define dso_local void @slurm_xfree(ptr noundef %0) #0 {
  %2 = alloca ptr, align 8
  %3 = alloca ptr, align 8
  store ptr %0, ptr %2, align 8
  %4 = load ptr, ptr %2, align 8
  %5 = load ptr, ptr %4, align 8
  %6 = icmp ne ptr %5, null
  br i1 %6, label %7, label %15

7:                                                ; preds = %1
  call void @llvm.lifetime.start.p0(i64 8, ptr %3) #9
  %8 = load ptr, ptr %2, align 8
  %9 = load ptr, ptr %8, align 8
  %10 = getelementptr inbounds i64, ptr %9, i64 -2
  store ptr %10, ptr %3, align 8
  %11 = load ptr, ptr %3, align 8
  %12 = getelementptr inbounds i64, ptr %11, i64 0
  store i64 0, ptr %12, align 8
  %13 = load ptr, ptr %3, align 8
  call void @free(ptr noundef %13) #9
  %14 = load ptr, ptr %2, align 8
  store ptr null, ptr %14, align 8
  call void @llvm.lifetime.end.p0(i64 8, ptr %3) #9
  br label %15

15:                                               ; preds = %7, %1
  ret void
}

; Function Attrs: nounwind uwtable
define dso_local void @slurm_xfree_array(ptr noundef %0) #0 {
  %2 = alloca ptr, align 8
  %3 = alloca i32, align 4
  store ptr %0, ptr %2, align 8
  %4 = load ptr, ptr %2, align 8
  %5 = load ptr, ptr %4, align 8
  %6 = icmp ne ptr %5, null
  br i1 %6, label %7, label %12

7:                                                ; preds = %1
  %8 = load ptr, ptr %2, align 8
  %9 = load ptr, ptr %8, align 8
  %10 = load ptr, ptr %9, align 8
  %11 = icmp ne ptr %10, null
  br i1 %11, label %13, label %12

12:                                               ; preds = %7, %1
  br label %34

13:                                               ; preds = %7
  call void @llvm.lifetime.start.p0(i64 4, ptr %3) #9
  store i32 0, ptr %3, align 4
  br label %14

14:                                               ; preds = %29, %13
  %15 = load ptr, ptr %2, align 8
  %16 = load ptr, ptr %15, align 8
  %17 = load i32, ptr %3, align 4
  %18 = sext i32 %17 to i64
  %19 = getelementptr inbounds ptr, ptr %16, i64 %18
  %20 = load ptr, ptr %19, align 8
  %21 = icmp ne ptr %20, null
  br i1 %21, label %23, label %22

22:                                               ; preds = %14
  call void @llvm.lifetime.end.p0(i64 4, ptr %3) #9
  br label %32

23:                                               ; preds = %14
  %24 = load ptr, ptr %2, align 8
  %25 = load ptr, ptr %24, align 8
  %26 = load i32, ptr %3, align 4
  %27 = sext i32 %26 to i64
  %28 = getelementptr inbounds ptr, ptr %25, i64 %27
  call void @slurm_xfree(ptr noundef %28)
  br label %29

29:                                               ; preds = %23
  %30 = load i32, ptr %3, align 4
  %31 = add nsw i32 %30, 1
  store i32 %31, ptr %3, align 4
  br label %14, !llvm.loop !10

32:                                               ; preds = %22
  %33 = load ptr, ptr %2, align 8
  call void @slurm_xfree(ptr noundef %33)
  br label %34

34:                                               ; preds = %32, %12
  ret void
}