; Function Attrs: nounwind uwtable
define dso_local void @slurm_xfree_array(ptr noundef captures(none) %0) local_unnamed_addr #2 {
  %2 = load ptr, ptr %0, align 8
  %.not = icmp eq ptr %2, null
  br i1 %.not, label %12, label %3

3:                                                ; preds = %1
  %4 = load ptr, ptr %2, align 8
  %.not8 = icmp eq ptr %4, null
  br i1 %.not8, label %12, label %slurm_xfree.exit11

slurm_xfree.exit:                                 ; preds = %slurm_xfree.exit11
  %5 = getelementptr inbounds i8, ptr %9, i64 -16
  store i64 0, ptr %5, align 8
  tail call void @free(ptr noundef nonnull %5) #11
  store ptr null, ptr %0, align 8
  br label %12

slurm_xfree.exit11:                               ; preds = %3, %slurm_xfree.exit11
  %indvars.iv = phi i64 [ %indvars.iv.next, %slurm_xfree.exit11 ], [ 0, %3 ]
  %6 = phi ptr [ %11, %slurm_xfree.exit11 ], [ %4, %3 ]
  %7 = phi ptr [ %10, %slurm_xfree.exit11 ], [ %2, %3 ]
  %8 = getelementptr inbounds i8, ptr %6, i64 -16
  store i64 0, ptr %8, align 8
  tail call void @free(ptr noundef nonnull %8) #11
  store ptr null, ptr %7, align 8
  %indvars.iv.next = add nuw nsw i64 %indvars.iv, 1
  %9 = load ptr, ptr %0, align 8
  %10 = getelementptr inbounds nuw ptr, ptr %9, i64 %indvars.iv.next
  %11 = load ptr, ptr %10, align 8
  %.not9 = icmp eq ptr %11, null
  br i1 %.not9, label %slurm_xfree.exit, label %slurm_xfree.exit11, !llvm.loop !8

12:                                               ; preds = %1, %3, %slurm_xfree.exit
  ret void
}